TN:
SF:/home/yanni/Desktop/CrashIO/introductory_module/harness/afl_harness.cpp
FN:32,43,_ZL14read_all_stdinv
FN:45,58,main
FNDA:4,_ZL14read_all_stdinv
FNDA:4,main
FNF:2
FNH:2
DA:32,4
DA:33,4
DA:34,4
DA:37,4
DA:38,4
DA:39,4
DA:40,4
DA:42,4
DA:43,4
DA:45,4
DA:54,4
DA:55,4
DA:56,4
DA:58,4
LF:14
LH:14
end_of_record
TN:
SF:/home/yanni/Desktop/CrashIO/introductory_module/target/parser_lib.cpp
FN:13,17,_ZN7crashio5intro12_GLOBAL__N_110has_prefixEPKhmPKc
FN:19,20,_ZN7crashio5intro12_GLOBAL__N_111read_u16_leEPKh
FN:23,25,_ZN7crashio5intro12_GLOBAL__N_111read_u32_leEPKh
FN:28,29,_ZN7crashio5intro12_GLOBAL__N_118is_printable_asciiEh
FN:48,161,_ZN7crashio5intro13parse_messageEPKhm
FNDA:4,_ZN7crashio5intro12_GLOBAL__N_110has_prefixEPKhmPKc
FNDA:10,_ZN7crashio5intro12_GLOBAL__N_111read_u16_leEPKh
FNDA:2,_ZN7crashio5intro12_GLOBAL__N_111read_u32_leEPKh
FNDA:10,_ZN7crashio5intro12_GLOBAL__N_118is_printable_asciiEh
FNDA:4,_ZN7crashio5intro13parse_messageEPKhm
FNF:5
FNH:5
DA:13,4
DA:14,4
DA:15,4
DA:16,4
DA:17,4
DA:19,10
DA:20,10
DA:23,2
DA:24,6
DA:25,4
DA:28,10
DA:29,10
DA:48,4
DA:49,4
DA:50,4
DA:51,4
DA:53,4
DA:54,4
DA:56,4
DA:57,4
DA:60,4
DA:62,4
DA:63,4
DA:66,4
DA:67,4
DA:69,10
DA:70,6
DA:71,6
DA:72,6
DA:73,6
DA:75,6
DA:76,6
DA:77,6
DA:79,6
DA:82,3
DA:83,3
DA:84,13
DA:85,10
DA:86,10
DA:88,3
DA:89,3
DA:92,3
DA:96,1
DA:98,1
DA:99,1
DA:101,3
DA:104,2
DA:105,2
DA:106,2
DA:109,2
DA:110,0
DA:114,2
DA:115,0
DA:118,2
DA:123,1
DA:124,1
DA:125,1
DA:126,1
DA:131,1
DA:132,0
DA:133,0
DA:134,0
DA:135,0
DA:136,0
DA:139,4
DA:140,3
DA:141,3
DA:142,3
DA:143,3
DA:146,1
DA:149,0
DA:150,0
DA:152,6
DA:155,4
DA:157,0
DA:160,4
DA:161,4
LF:77
LH:67
end_of_record
TN:
SF:/usr/include/c++/13/bits/alloc_traits.h
FN:481,482,_ZNSt16allocator_traitsISaIhEE8allocateERS0_m
FN:516,517,_ZNSt16allocator_traitsISaIhEE10deallocateERS0_Phm
FN:571,574,_ZNSt16allocator_traitsISaIhEE8max_sizeERKS0_
FN:945,949,_ZSt8_DestroyIPhhEvT_S1_RSaIT0_E
FNDA:5,_ZNSt16allocator_traitsISaIhEE8allocateERS0_m
FNDA:5,_ZNSt16allocator_traitsISaIhEE10deallocateERS0_Phm
FNDA:9,_ZNSt16allocator_traitsISaIhEE8max_sizeERKS0_
FNDA:9,_ZSt8_DestroyIPhhEvT_S1_RSaIT0_E
FNF:4
FNH:4
DA:481,5
DA:482,5
DA:516,5
DA:517,5
DA:571,9
DA:574,9
DA:945,9
DA:948,9
DA:949,9
LF:9
LH:9
end_of_record
TN:
SF:/usr/include/c++/13/bits/allocator.h
FN:163,163,_ZNSaIhEC2Ev
FN:167,168,_ZNSaIhEC2ERKS_
FN:184,184,_ZNSaIhED2Ev
FNDA:5,_ZNSaIhEC2Ev
FNDA:2,_ZNSaIhEC2ERKS_
FNDA:7,_ZNSaIhED2Ev
FNF:3
FNH:3
DA:163,5
DA:167,2
DA:168,2
DA:184,7
LF:4
LH:4
end_of_record
TN:
SF:/usr/include/c++/13/bits/basic_string.h
FN:1718,1719,_ZNSt7__cxx1112basic_stringIcSt11char_traitsIcESaIcEE6assignIPKcvEERS4_T_S9_
FN:3727,3731,_ZSteqIcSt11char_traitsIcESaIcEEbRKNSt7__cxx1112basic_stringIT_T0_T1_EEPKS5_
FNDA:3,_ZNSt7__cxx1112basic_stringIcSt11char_traitsIcESaIcEE6assignIPKcvEERS4_T_S9_
FNDA:2,_ZSteqIcSt11char_traitsIcESaIcEEbRKNSt7__cxx1112basic_stringIT_T0_T1_EEPKS5_
FNF:2
FNH:2
DA:1718,3
DA:1719,3
DA:3727,2
DA:3730,2
DA:3731,2
LF:5
LH:5
end_of_record
TN:
SF:/usr/include/c++/13/bits/char_traits.h
FN:374,390,_ZNSt11char_traitsIcE7compareEPKcS2_m
FN:393,399,_ZNSt11char_traitsIcE6lengthEPKc
FNDA:0,_ZNSt11char_traitsIcE7compareEPKcS2_m
FNDA:2,_ZNSt11char_traitsIcE6lengthEPKc
FNF:2
FNH:1
DA:374,0
DA:376,0
DA:377,0
DA:389,0
DA:390,0
DA:393,2
DA:399,2
LF:7
LH:2
end_of_record
TN:
SF:/usr/include/c++/13/bits/cpp_type_traits.h
FN:607,608,_ZSt12__miter_baseIPhET_S1_
FNDA:24,_ZSt12__miter_baseIPhET_S1_
FNF:1
FNH:1
DA:607,24
DA:608,24
LF:2
LH:2
end_of_record
TN:
SF:/usr/include/c++/13/bits/new_allocator.h
FN:104,104,_ZNSt15__new_allocatorIhED2Ev
FN:126,151,_ZNSt15__new_allocatorIhE8allocateEmPKv
FN:156,173,_ZNSt15__new_allocatorIhE10deallocateEPhm
FN:182,183,_ZNKSt15__new_allocatorIhE8max_sizeEv
FN:230,233,_ZNKSt15__new_allocatorIhE11_M_max_sizeEv
FN:88,88,_ZNSt15__new_allocatorIhEC2Ev
FN:92,92,_ZNSt15__new_allocatorIhEC2ERKS0_
FNDA:7,_ZNSt15__new_allocatorIhED2Ev
FNDA:5,_ZNSt15__new_allocatorIhE8allocateEmPKv
FNDA:5,_ZNSt15__new_allocatorIhE10deallocateEPhm
FNDA:9,_ZNKSt15__new_allocatorIhE8max_sizeEv
FNDA:14,_ZNKSt15__new_allocatorIhE11_M_max_sizeEv
FNDA:5,_ZNSt15__new_allocatorIhEC2Ev
FNDA:2,_ZNSt15__new_allocatorIhEC2ERKS0_
FNF:7
FNH:7
DA:88,5
DA:92,2
DA:104,7
DA:126,5
DA:134,5
DA:138,0
DA:139,0
DA:140,0
DA:151,5
DA:156,5
DA:172,5
DA:173,5
DA:182,9
DA:183,9
DA:230,14
DA:233,14
LF:16
LH:13
end_of_record
TN:
SF:/usr/include/c++/13/bits/stl_algobase.h
FN:1018,1018,_ZSt17__size_to_integerm
FN:1117,1130,_ZSt10__fill_n_aIPhmhET_S1_T0_RKT1_St26random_access_iterator_tag
FN:1152,1158,_ZSt6fill_nIPhmhET_S1_T0_RKT1_
FN:233,241,_ZSt3minImERKT_S2_S2_
FN:257,265,_ZSt3maxImERKT_S2_S2_
FN:316,318,_ZSt12__niter_baseIPhET_S1_
FN:331,332,_ZSt12__niter_wrapIN9__gnu_cxx17__normal_iteratorIPhSt6vectorIhSaIhEEEES2_ET_S7_T0_
FN:338,339,_ZSt12__niter_wrapIPhET_RKS1_S1_
FN:397,398,_ZNSt11__copy_moveILb0ELb0ESt26random_access_iterator_tagE12__assign_oneIhhEEvPT_PT0_
FN:422,423,_ZNSt11__copy_moveILb1ELb0ESt26random_access_iterator_tagE12__assign_oneIhhEEvPT_PT0_
FN:433,441,_ZNSt11__copy_moveILb0ELb1ESt26random_access_iterator_tagE8__copy_mIhhEEPT0_PT_S6_S4_
FN:433,441,_ZNSt11__copy_moveILb1ELb1ESt26random_access_iterator_tagE8__copy_mIhhEEPT0_PT_S6_S4_
FN:497,506,_ZSt14__copy_move_a2ILb0EPhS0_ET1_T0_S2_S1_
FN:497,506,_ZSt14__copy_move_a2ILb1EPhS0_ET1_T0_S2_S1_
FN:532,533,_ZSt14__copy_move_a1ILb0EPhS0_ET1_T0_S2_S1_
FN:532,533,_ZSt14__copy_move_a1ILb1EPhS0_ET1_T0_S2_S1_
FN:538,543,_ZSt13__copy_move_aILb0EPhN9__gnu_cxx17__normal_iteratorIS0_St6vectorIhSaIhEEEEET1_T0_S8_S7_
FN:538,543,_ZSt13__copy_move_aILb0EPhS0_ET1_T0_S2_S1_
FN:538,543,_ZSt13__copy_move_aILb1EPhS0_ET1_T0_S2_S1_
FN:624,633,_ZSt4copyIPhN9__gnu_cxx17__normal_iteratorIS0_St6vectorIhSaIhEEEEET0_T_S8_S7_
FN:624,633,_ZSt4copyIPhS0_ET0_T_S2_S1_
FN:624,633,_ZSt4copyISt13move_iteratorIPhES1_ET0_T_S4_S3_
FN:744,752,_ZNSt20__copy_move_backwardILb1ELb1ESt26random_access_iterator_tagE13__copy_move_bIhhEEPT0_PT_S6_S4_
FN:759,771,_ZSt23__copy_move_backward_a2ILb1EPhS0_ET1_T0_S2_S1_
FN:777,778,_ZSt23__copy_move_backward_a1ILb1EPhS0_ET1_T0_S2_S1_
FN:805,810,_ZSt22__copy_move_backward_aILb1EPhS0_ET1_T0_S2_S1_
FN:892,903,_ZSt13move_backwardIPhS0_ET0_T_S2_S1_
FN:939,952,_ZSt9__fill_a1IhEN9__gnu_cxx11__enable_ifIXsr9__is_byteIT_EE7__valueEvE6__typeEPS2_S5_RKS2_
FN:976,977,_ZSt8__fill_aIPhhEvT_S1_RKT0_
FNDA:1,_ZSt17__size_to_integerm
FNDA:1,_ZSt10__fill_n_aIPhmhET_S1_T0_RKT1_St26random_access_iterator_tag
FNDA:1,_ZSt6fill_nIPhmhET_S1_T0_RKT1_
FNDA:9,_ZSt3minImERKT_S2_S2_
FNDA:4,_ZSt3maxImERKT_S2_S2_
FNDA:36,_ZSt12__niter_baseIPhET_S1_
FNDA:0,_ZSt12__niter_wrapIN9__gnu_cxx17__normal_iteratorIPhSt6vectorIhSaIhEEEES2_ET_S7_T0_
FNDA:12,_ZSt12__niter_wrapIPhET_RKS1_S1_
FNDA:0,_ZNSt11__copy_moveILb0ELb0ESt26random_access_iterator_tagE12__assign_oneIhhEEvPT_PT0_
FNDA:0,_ZNSt11__copy_moveILb1ELb0ESt26random_access_iterator_tagE12__assign_oneIhhEEvPT_PT0_
FNDA:4,_ZNSt11__copy_moveILb0ELb1ESt26random_access_iterator_tagE8__copy_mIhhEEPT0_PT_S6_S4_
FNDA:8,_ZNSt11__copy_moveILb1ELb1ESt26random_access_iterator_tagE8__copy_mIhhEEPT0_PT_S6_S4_
FNDA:4,_ZSt14__copy_move_a2ILb0EPhS0_ET1_T0_S2_S1_
FNDA:8,_ZSt14__copy_move_a2ILb1EPhS0_ET1_T0_S2_S1_
FNDA:4,_ZSt14__copy_move_a1ILb0EPhS0_ET1_T0_S2_S1_
FNDA:8,_ZSt14__copy_move_a1ILb1EPhS0_ET1_T0_S2_S1_
FNDA:0,_ZSt13__copy_move_aILb0EPhN9__gnu_cxx17__normal_iteratorIS0_St6vectorIhSaIhEEEEET1_T0_S8_S7_
FNDA:4,_ZSt13__copy_move_aILb0EPhS0_ET1_T0_S2_S1_
FNDA:8,_ZSt13__copy_move_aILb1EPhS0_ET1_T0_S2_S1_
FNDA:0,_ZSt4copyIPhN9__gnu_cxx17__normal_iteratorIS0_St6vectorIhSaIhEEEEET0_T_S8_S7_
FNDA:4,_ZSt4copyIPhS0_ET0_T_S2_S1_
FNDA:8,_ZSt4copyISt13move_iteratorIPhES1_ET0_T_S4_S3_
FNDA:0,_ZNSt20__copy_move_backwardILb1ELb1ESt26random_access_iterator_tagE13__copy_move_bIhhEEPT0_PT_S6_S4_
FNDA:0,_ZSt23__copy_move_backward_a2ILb1EPhS0_ET1_T0_S2_S1_
FNDA:0,_ZSt23__copy_move_backward_a1ILb1EPhS0_ET1_T0_S2_S1_
FNDA:0,_ZSt22__copy_move_backward_aILb1EPhS0_ET1_T0_S2_S1_
FNDA:0,_ZSt13move_backwardIPhS0_ET0_T_S2_S1_
FNDA:1,_ZSt9__fill_a1IhEN9__gnu_cxx11__enable_ifIXsr9__is_byteIT_EE7__valueEvE6__typeEPS2_S5_RKS2_
FNDA:1,_ZSt8__fill_aIPhhEvT_S1_RKT0_
FNF:29
FNH:19
DA:233,9
DA:238,9
DA:239,0
DA:240,9
DA:241,9
DA:257,4
DA:262,4
DA:263,4
DA:264,0
DA:265,4
DA:316,36
DA:318,36
DA:331,0
DA:332,0
DA:338,12
DA:339,12
DA:397,0
DA:398,0
DA:422,0
DA:423,0
DA:433,12
DA:435,12
DA:436,12
DA:437,4
DA:438,8
DA:439,0
DA:440,0
DA:441,12
DA:497,12
DA:505,12
DA:506,12
DA:532,12
DA:533,12
DA:538,12
DA:540,12
DA:541,24
DA:542,12
DA:543,12
DA:624,12
DA:632,12
DA:633,12
DA:744,0
DA:746,0
DA:747,0
DA:748,0
DA:749,0
DA:750,0
DA:751,0
DA:752,0
DA:759,0
DA:767,0
DA:769,0
DA:770,0
DA:771,0
DA:777,0
DA:778,0
DA:805,0
DA:807,0
DA:808,0
DA:809,0
DA:810,0
DA:892,0
DA:901,0
DA:902,0
DA:903,0
DA:939,1
DA:941,1
DA:950,1
DA:951,1
DA:952,1
DA:976,1
DA:977,1
DA:1018,1
DA:1117,1
DA:1123,1
DA:1124,0
DA:1128,1
DA:1129,1
DA:1130,1
DA:1152,1
DA:1157,2
DA:1158,1
LF:82
LH:47
end_of_record
TN:
SF:/usr/include/c++/13/bits/stl_construct.h
FN:172,172,_ZNSt12_Destroy_auxILb1EE9__destroyIPhEEvT_S3_
FN:182,197,_ZSt8_DestroyIPhEvT_S1_
FNDA:9,_ZNSt12_Destroy_auxILb1EE9__destroyIPhEEvT_S3_
FNDA:9,_ZSt8_DestroyIPhEvT_S1_
FNF:2
FNH:2
DA:172,9
DA:182,9
DA:195,9
DA:196,9
DA:197,9
LF:5
LH:5
end_of_record
TN:
SF:/usr/include/c++/13/bits/stl_iterator.h
FN:1076,1077,_ZN9__gnu_cxx17__normal_iteratorIPKhSt6vectorIhSaIhEEEC2ERKS2_
FN:1076,1077,_ZN9__gnu_cxx17__normal_iteratorIPhSt6vectorIhSaIhEEEC2ERKS1_
FN:1083,1094,_ZN9__gnu_cxx17__normal_iteratorIPKcNSt7__cxx1112basic_stringIcSt11char_traitsIcESaIcEEEEC2IPcvEERKNS0_IT_S8_EE
FN:1083,1094,_ZN9__gnu_cxx17__normal_iteratorIPKhSt6vectorIhSaIhEEEC2IPhvEERKNS0_IT_S5_EE
FN:1147,1148,_ZNK9__gnu_cxx17__normal_iteratorIPhSt6vectorIhSaIhEEEplEl
FN:1162,1163,_ZNK9__gnu_cxx17__normal_iteratorIPKhSt6vectorIhSaIhEEE4baseEv
FN:1162,1163,_ZNK9__gnu_cxx17__normal_iteratorIPcNSt7__cxx1112basic_stringIcSt11char_traitsIcESaIcEEEE4baseEv
FN:1162,1163,_ZNK9__gnu_cxx17__normal_iteratorIPhSt6vectorIhSaIhEEE4baseEv
FN:1334,1337,_ZN9__gnu_cxxmiIPKhSt6vectorIhSaIhEEEENS_17__normal_iteratorIT_T0_E15difference_typeERKS9_SC_
FN:1334,1337,_ZN9__gnu_cxxmiIPhSt6vectorIhSaIhEEEENS_17__normal_iteratorIT_T0_E15difference_typeERKS8_SB_
FN:1357,1359,_ZSt12__niter_baseIPhSt6vectorIhSaIhEEET_N9__gnu_cxx17__normal_iteratorIS4_T0_EE
FN:1519,1520,_ZNSt13move_iteratorIPhEC2ES0_
FN:1545,1546,_ZNKSt13move_iteratorIPhE4baseEv
FN:1815,1816,_ZSt18make_move_iteratorIPhESt13move_iteratorIT_ES2_
FN:1832,1833,_ZSt32__make_move_if_noexcept_iteratorIhSt13move_iteratorIPhEET0_PT_
FN:2968,2970,_ZSt12__miter_baseIPhEDTcl12__miter_basecldtfp_4baseEEESt13move_iteratorIT_E
FNDA:4,_ZN9__gnu_cxx17__normal_iteratorIPKhSt6vectorIhSaIhEEEC2ERKS2_
FNDA:20,_ZN9__gnu_cxx17__normal_iteratorIPhSt6vectorIhSaIhEEEC2ERKS1_
FNDA:6,_ZN9__gnu_cxx17__normal_iteratorIPKcNSt7__cxx1112basic_stringIcSt11char_traitsIcESaIcEEEEC2IPcvEERKNS0_IT_S8_EE
FNDA:4,_ZN9__gnu_cxx17__normal_iteratorIPKhSt6vectorIhSaIhEEEC2IPhvEERKNS0_IT_S5_EE
FNDA:8,_ZNK9__gnu_cxx17__normal_iteratorIPhSt6vectorIhSaIhEEEplEl
FNDA:8,_ZNK9__gnu_cxx17__normal_iteratorIPKhSt6vectorIhSaIhEEE4baseEv
FNDA:6,_ZNK9__gnu_cxx17__normal_iteratorIPcNSt7__cxx1112basic_stringIcSt11char_traitsIcESaIcEEEE4baseEv
FNDA:12,_ZNK9__gnu_cxx17__normal_iteratorIPhSt6vectorIhSaIhEEE4baseEv
FNDA:4,_ZN9__gnu_cxxmiIPKhSt6vectorIhSaIhEEEENS_17__normal_iteratorIT_T0_E15difference_typeERKS9_SC_
FNDA:0,_ZN9__gnu_cxxmiIPhSt6vectorIhSaIhEEEENS_17__normal_iteratorIT_T0_E15difference_typeERKS8_SB_
FNDA:0,_ZSt12__niter_baseIPhSt6vectorIhSaIhEEET_N9__gnu_cxx17__normal_iteratorIS4_T0_EE
FNDA:16,_ZNSt13move_iteratorIPhEC2ES0_
FNDA:16,_ZNKSt13move_iteratorIPhE4baseEv
FNDA:0,_ZSt18make_move_iteratorIPhESt13move_iteratorIT_ES2_
FNDA:16,_ZSt32__make_move_if_noexcept_iteratorIhSt13move_iteratorIPhEET0_PT_
FNDA:16,_ZSt12__miter_baseIPhEDTcl12__miter_basecldtfp_4baseEEESt13move_iteratorIT_E
FNF:16
FNH:13
DA:1076,24
DA:1077,24
DA:1083,10
DA:1094,10
DA:1147,8
DA:1148,8
DA:1162,26
DA:1163,26
DA:1334,4
DA:1337,4
DA:1357,0
DA:1359,0
DA:1519,16
DA:1520,16
DA:1545,16
DA:1546,16
DA:1815,0
DA:1816,0
DA:1832,16
DA:1833,16
DA:2968,16
DA:2970,16
LF:22
LH:18
end_of_record
TN:
SF:/usr/include/c++/13/bits/stl_iterator_base_funcs.h
FN:100,106,_ZSt10__distanceIPhENSt15iterator_traitsIT_E15difference_typeES2_S2_St26random_access_iterator_tag
FN:148,152,_ZSt8distanceIPhENSt15iterator_traitsIT_E15difference_typeES2_S2_
FN:184,196,_ZSt9__advanceIPhlEvRT_T0_St26random_access_iterator_tag
FN:220,225,_ZSt7advanceIPhmEvRT_T0_
FNDA:4,_ZSt10__distanceIPhENSt15iterator_traitsIT_E15difference_typeES2_S2_St26random_access_iterator_tag
FNDA:4,_ZSt8distanceIPhENSt15iterator_traitsIT_E15difference_typeES2_S2_
FNDA:0,_ZSt9__advanceIPhlEvRT_T0_St26random_access_iterator_tag
FNDA:0,_ZSt7advanceIPhmEvRT_T0_
FNF:4
FNH:2
DA:100,4
DA:106,4
DA:148,4
DA:151,8
DA:152,4
DA:184,0
DA:190,0
DA:191,0
DA:192,0
DA:193,0
DA:195,0
DA:196,0
DA:220,0
DA:223,0
DA:224,0
DA:225,0
LF:16
LH:5
end_of_record
TN:
SF:/usr/include/c++/13/bits/stl_iterator_base_types.h
FN:239,240,_ZSt19__iterator_categoryIPhENSt15iterator_traitsIT_E17iterator_categoryERKS2_
FNDA:9,_ZSt19__iterator_categoryIPhENSt15iterator_traitsIT_E17iterator_categoryERKS2_
FNF:1
FNH:1
DA:239,9
DA:240,9
LF:2
LH:2
end_of_record
TN:
SF:/usr/include/c++/13/bits/stl_uninitialized.h
FN:145,147,_ZNSt20__uninitialized_copyILb1EE13__uninit_copyIPhS2_EET0_T_S4_S3_
FN:145,147,_ZNSt20__uninitialized_copyILb1EE13__uninit_copyISt13move_iteratorIPhES3_EET0_T_S6_S5_
FN:163,185,_ZSt18uninitialized_copyIPhS0_ET0_T_S2_S1_
FN:163,185,_ZSt18uninitialized_copyISt13move_iteratorIPhES1_ET0_T_S4_S3_
FN:292,294,_ZNSt22__uninitialized_fill_nILb1EE15__uninit_fill_nIPhmhEET_S3_T0_RKT1_
FN:312,327,_ZSt20uninitialized_fill_nIPhmhET_S1_T0_RKT1_
FN:366,373,_ZSt22__uninitialized_copy_aIPhS0_hET0_T_S2_S1_RSaIT1_E
FN:366,373,_ZSt22__uninitialized_copy_aISt13move_iteratorIPhES1_hET0_T_S4_S3_RSaIT1_E
FN:381,386,_ZSt22__uninitialized_move_aIPhS0_SaIhEET0_T_S3_S2_RT1_
FN:393,400,_ZSt34__uninitialized_move_if_noexcept_aIPhS0_SaIhEET0_T_S3_S2_RT1_
FN:465,472,_ZSt24__uninitialized_fill_n_aIPhmhhET_S1_T0_RKT1_RSaIT2_E
FNDA:4,_ZNSt20__uninitialized_copyILb1EE13__uninit_copyIPhS2_EET0_T_S4_S3_
FNDA:8,_ZNSt20__uninitialized_copyILb1EE13__uninit_copyISt13move_iteratorIPhES3_EET0_T_S6_S5_
FNDA:4,_ZSt18uninitialized_copyIPhS0_ET0_T_S2_S1_
FNDA:8,_ZSt18uninitialized_copyISt13move_iteratorIPhES1_ET0_T_S4_S3_
FNDA:1,_ZNSt22__uninitialized_fill_nILb1EE15__uninit_fill_nIPhmhEET_S3_T0_RKT1_
FNDA:1,_ZSt20uninitialized_fill_nIPhmhET_S1_T0_RKT1_
FNDA:4,_ZSt22__uninitialized_copy_aIPhS0_hET0_T_S2_S1_RSaIT1_E
FNDA:8,_ZSt22__uninitialized_copy_aISt13move_iteratorIPhES1_hET0_T_S4_S3_RSaIT1_E
FNDA:0,_ZSt22__uninitialized_move_aIPhS0_SaIhEET0_T_S3_S2_RT1_
FNDA:8,_ZSt34__uninitialized_move_if_noexcept_aIPhS0_SaIhEET0_T_S3_S2_RT1_
FNDA:1,_ZSt24__uninitialized_fill_n_aIPhmhhET_S1_T0_RKT1_RSaIT2_E
FNF:11
FNH:10
DA:145,12
DA:147,12
DA:163,12
DA:174,12
DA:181,12
DA:184,12
DA:185,12
DA:292,1
DA:294,1
DA:312,1
DA:319,1
DA:326,1
DA:327,1
DA:366,12
DA:373,12
DA:381,0
DA:384,0
DA:385,0
DA:386,0
DA:393,8
DA:398,8
DA:399,8
DA:400,8
DA:465,1
DA:472,1
LF:25
LH:21
end_of_record
TN:
SF:/usr/include/c++/13/bits/stl_vector.h
FN:1126,1129,_ZNSt6vectorIhSaIhEEixEm
FN:1260,1261,_ZNSt6vectorIhSaIhEE4dataEv
FN:133,_ZNSt12_Vector_baseIhSaIhEE12_Vector_implD2Ev
FN:137,143,_ZNSt12_Vector_baseIhSaIhEE12_Vector_implC2Ev
FN:146,148,_ZNSt12_Vector_baseIhSaIhEE12_Vector_implC2ERKS0_
FN:1482,1488,_ZNSt6vectorIhSaIhEE6insertIPhvEEN9__gnu_cxx17__normal_iteratorIS3_S1_EENS5_IPKhS1_EET_SA_
FN:1704,1709,_ZNSt6vectorIhSaIhEE18_M_fill_initializeEmRKh
FN:1896,1902,_ZNKSt6vectorIhSaIhEE12_M_check_lenEmPKc
FN:1907,1912,_ZNSt6vectorIhSaIhEE17_S_check_init_lenEmRKS0_
FN:1916,1924,_ZNSt6vectorIhSaIhEE11_S_max_sizeERKS0_
FN:1990,1991,_ZNKSt6vectorIhSaIhEE11_M_data_ptrIhEEPT_S4_
FN:301,302,_ZNSt12_Vector_baseIhSaIhEE19_M_get_Tp_allocatorEv
FN:306,307,_ZNKSt12_Vector_baseIhSaIhEE19_M_get_Tp_allocatorEv
FN:315,315,_ZNSt12_Vector_baseIhSaIhEEC2Ev
FN:333,335,_ZNSt12_Vector_baseIhSaIhEEC2EmRKS0_
FN:367,371,_ZNSt12_Vector_baseIhSaIhEED2Ev
FN:378,381,_ZNSt12_Vector_baseIhSaIhEE11_M_allocateEm
FN:386,391,_ZNSt12_Vector_baseIhSaIhEE13_M_deallocateEPhm
FN:396,401,_ZNSt12_Vector_baseIhSaIhEE17_M_create_storageEm
FN:531,531,_ZNSt6vectorIhSaIhEEC2Ev
FN:569,572,_ZNSt6vectorIhSaIhEEC2EmRKhRKS0_
FN:733,738,_ZNSt6vectorIhSaIhEED2Ev
FN:873,874,_ZNSt6vectorIhSaIhEE5beginEv
FN:893,894,_ZNSt6vectorIhSaIhEE3endEv
FN:954,955,_ZNKSt6vectorIhSaIhEE6cbeginEv
FN:99,101,_ZNSt12_Vector_baseIhSaIhEE17_Vector_impl_dataC2Ev
FN:992,993,_ZNKSt6vectorIhSaIhEE4sizeEv
FN:998,999,_ZNKSt6vectorIhSaIhEE8max_sizeEv
FNDA:0,_ZNSt6vectorIhSaIhEEixEm
FNDA:4,_ZNSt6vectorIhSaIhEE4dataEv
FNDA:5,_ZNSt12_Vector_baseIhSaIhEE12_Vector_implD2Ev
FNDA:4,_ZNSt12_Vector_baseIhSaIhEE12_Vector_implC2Ev
FNDA:1,_ZNSt12_Vector_baseIhSaIhEE12_Vector_implC2ERKS0_
FNDA:4,_ZNSt6vectorIhSaIhEE6insertIPhvEEN9__gnu_cxx17__normal_iteratorIS3_S1_EENS5_IPKhS1_EET_SA_
FNDA:1,_ZNSt6vectorIhSaIhEE18_M_fill_initializeEmRKh
FNDA:4,_ZNKSt6vectorIhSaIhEE12_M_check_lenEmPKc
FNDA:1,_ZNSt6vectorIhSaIhEE17_S_check_init_lenEmRKS0_
FNDA:9,_ZNSt6vectorIhSaIhEE11_S_max_sizeERKS0_
FNDA:4,_ZNKSt6vectorIhSaIhEE11_M_data_ptrIhEEPT_S4_
FNDA:22,_ZNSt12_Vector_baseIhSaIhEE19_M_get_Tp_allocatorEv
FNDA:8,_ZNKSt12_Vector_baseIhSaIhEE19_M_get_Tp_allocatorEv
FNDA:4,_ZNSt12_Vector_baseIhSaIhEEC2Ev
FNDA:1,_ZNSt12_Vector_baseIhSaIhEEC2EmRKS0_
FNDA:5,_ZNSt12_Vector_baseIhSaIhEED2Ev
FNDA:5,_ZNSt12_Vector_baseIhSaIhEE11_M_allocateEm
FNDA:9,_ZNSt12_Vector_baseIhSaIhEE13_M_deallocateEPhm
FNDA:1,_ZNSt12_Vector_baseIhSaIhEE17_M_create_storageEm
FNDA:4,_ZNSt6vectorIhSaIhEEC2Ev
FNDA:1,_ZNSt6vectorIhSaIhEEC2EmRKhRKS0_
FNDA:5,_ZNSt6vectorIhSaIhEED2Ev
FNDA:8,_ZNSt6vectorIhSaIhEE5beginEv
FNDA:4,_ZNSt6vectorIhSaIhEE3endEv
FNDA:4,_ZNKSt6vectorIhSaIhEE6cbeginEv
FNDA:5,_ZNSt12_Vector_baseIhSaIhEE17_Vector_impl_dataC2Ev
FNDA:20,_ZNKSt6vectorIhSaIhEE4sizeEv
FNDA:8,_ZNKSt6vectorIhSaIhEE8max_sizeEv
FNF:28
FNH:27
DA:99,5
DA:100,5
DA:101,5
DA:137,8
DA:142,4
DA:143,4
DA:146,2
DA:147,1
DA:148,1
DA:301,22
DA:302,22
DA:306,8
DA:307,8
DA:315,4
DA:333,1
DA:334,1
DA:335,1
DA:367,5
DA:369,10
DA:370,5
DA:371,5
DA:378,5
DA:381,5
DA:386,9
DA:389,9
DA:390,5
DA:391,9
DA:396,1
DA:398,1
DA:399,1
DA:400,1
DA:401,1
DA:531,4
DA:569,1
DA:571,1
DA:572,1
DA:733,5
DA:735,10
DA:736,5
DA:738,5
DA:873,8
DA:874,8
DA:893,4
DA:894,4
DA:954,4
DA:955,4
DA:992,20
DA:993,20
DA:998,8
DA:999,8
DA:1126,0
DA:1129,0
DA:1260,4
DA:1261,4
DA:1482,4
DA:1485,4
DA:1486,8
DA:1487,4
DA:1488,4
DA:1704,1
DA:1706,1
DA:1707,2
DA:1708,1
DA:1709,1
DA:1896,4
DA:1898,4
DA:1899,0
DA:1901,4
DA:1902,4
DA:1907,1
DA:1909,1
DA:1910,0
DA:1912,1
DA:1916,9
DA:1921,9
DA:1923,9
DA:1924,9
DA:1990,4
DA:1991,4
LF:79
LH:75
end_of_record
TN:
SF:/usr/include/c++/13/bits/vector.tcc
FN:752,_ZNSt6vectorIhSaIhEE15_M_range_insertIPhEEvN9__gnu_cxx17__normal_iteratorIS3_S1_EET_S7_St20forward_iterator_tag
FNDA:4,_ZNSt6vectorIhSaIhEE15_M_range_insertIPhEEvN9__gnu_cxx17__normal_iteratorIS3_S1_EET_S7_St20forward_iterator_tag
FNF:1
FNH:1
DA:752,4
DA:755,4
DA:757,4
DA:758,8
DA:759,4
DA:761,0
DA:762,0
DA:763,0
DA:766,0
DA:767,0
DA:768,0
DA:769,0
DA:770,0
DA:772,0
DA:774,0
DA:775,0
DA:778,0
DA:779,0
DA:781,0
DA:782,0
DA:783,0
DA:784,0
DA:786,0
DA:787,0
DA:788,0
DA:789,0
DA:790,0
DA:792,0
DA:794,0
DA:800,4
DA:801,4
DA:803,4
DA:804,4
DA:805,4
DA:806,4
DA:810,4
DA:811,4
DA:812,4
DA:814,8
DA:815,4
DA:816,4
DA:818,4
DA:819,4
DA:820,4
DA:821,4
DA:824,0
DA:825,0
DA:826,0
DA:827,0
DA:828,0
DA:829,8
DA:830,4
DA:832,8
DA:833,4
DA:834,4
DA:835,4
DA:836,4
DA:838,4
DA:839,4
LF:59
LH:30
end_of_record
